target datalayout = "e-m:e-p270:32:32-p271:32:32-p272:64:64-i64:64-i128:128-f80:128-n8:16:32:64-S128"
target triple = "x86_64-pc-linux-gnu"

%class.Register = type { i32 }
%class.XMMRegister = type { i32 }
%class.Address = type { %class.Register, %class.Register, %class.XMMRegister, i32, i32, i8, [3 x i8], %class.RelocationHolder }
%class.RelocationHolder = type { [40 x i8] }
%class.SaveLiveRegisters = type { ptr, %class.GrowableArray, %class.GrowableArray.0, %class.GrowableArray.3, i32, i32 }
%class.GrowableArray = type { %class.GrowableArrayWithAllocator, %class.GrowableArrayMetadata }
%class.GrowableArrayWithAllocator = type { %class.GrowableArrayView }
%class.GrowableArrayView = type { %class.GrowableArrayBase, ptr }
%class.GrowableArrayBase = type { i32, i32 }
%class.GrowableArrayMetadata = type { i64 }
%class.GrowableArray.0 = type { %class.GrowableArrayWithAllocator.1, %class.GrowableArrayMetadata }
%class.GrowableArrayWithAllocator.1 = type { %class.GrowableArrayView.2 }
%class.GrowableArrayView.2 = type { %class.GrowableArrayBase, ptr }
%class.GrowableArray.3 = type { %class.GrowableArrayWithAllocator.4, %class.GrowableArrayMetadata }
%class.GrowableArrayWithAllocator.4 = type { %class.GrowableArrayView.5 }
%class.GrowableArrayView.5 = type { %class.GrowableArrayBase, ptr }
%class.Relocation = type <{ ptr, ptr, i32, [4 x i8] }>

@_ZL5noreg = internal constant %class.Register { i32 -1 }, align 4
@_ZL3rsp = internal constant %class.Register { i32 4 }, align 4
@_ZL6xnoreg = internal constant %class.XMMRegister { i32 -1 }, align 4
@_ZTV10Relocation = external unnamed_addr constant { [11 x ptr] }, align 8

; Function Attrs: mustprogress nounwind uwtable
define linkonce_odr hidden void @_ZN10RelocationC2EN9relocInfo9relocTypeE(ptr noundef nonnull align 8 dereferenceable(20) %0, i32 noundef %1) unnamed_addr #1 comdat align 2 {
  %3 = alloca ptr, align 8
  %4 = alloca i32, align 4
  store ptr %0, ptr %3, align 8
  store i32 %1, ptr %4, align 4
  %5 = load ptr, ptr %3, align 8
  store ptr getelementptr inbounds inrange(-16, 72) ({ [11 x ptr] }, ptr @_ZTV10Relocation, i32 0, i32 0, i32 2), ptr %5, align 8
  %6 = getelementptr inbounds %class.Relocation, ptr %5, i32 0, i32 1
  store ptr null, ptr %6, align 8
  %7 = getelementptr inbounds %class.Relocation, ptr %5, i32 0, i32 2
  %8 = load i32, ptr %4, align 4
  store i32 %8, ptr %7, align 8
  ret void
}

; Function Attrs: mustprogress nounwind uwtable
define linkonce_odr hidden void @_ZN10RelocationC2Ev(ptr noundef nonnull align 8 dereferenceable(20) %0) unnamed_addr #1 comdat align 2 {
  %2 = alloca ptr, align 8
  store ptr %0, ptr %2, align 8
  %3 = load ptr, ptr %2, align 8
  call void @_ZN10RelocationC2EN9relocInfo9relocTypeE(ptr noundef nonnull align 8 dereferenceable(20) %3, i32 noundef 0)
  ret void
}

; Function Attrs: mustprogress nounwind uwtable
define linkonce_odr hidden void @_ZN16RelocationHolder18emplace_relocationI10RelocationJEEEvDpRKT0_(ptr noundef nonnull align 8 dereferenceable(40) %0) #1 comdat align 2 {
  %2 = alloca ptr, align 8
  %3 = alloca ptr, align 8
  store ptr %0, ptr %2, align 8
  %4 = load ptr, ptr %2, align 8
  %5 = getelementptr inbounds %class.RelocationHolder, ptr %4, i32 0, i32 0
  %6 = getelementptr inbounds [40 x i8], ptr %5, i64 0, i64 0
  call void @_ZN10RelocationC2Ev(ptr noundef nonnull align 8 dereferenceable(20) %6)
  store ptr %6, ptr %3, align 8
  ret void
}

; Function Attrs: mustprogress nounwind uwtable
define linkonce_odr hidden void @_ZN16RelocationHolderC2I10RelocationJEEENS_9ConstructIT_EEDpRKT0_(ptr noundef nonnull align 8 dereferenceable(40) %0) unnamed_addr #1 comdat align 2 {
  %2 = alloca ptr, align 8
  store ptr %0, ptr %2, align 8
  %3 = load ptr, ptr %2, align 8
  call void @_ZN16RelocationHolder18emplace_relocationI10RelocationJEEEvDpRKT0_(ptr noundef nonnull align 8 dereferenceable(40) %3)
  ret void
}

; Function Attrs: mustprogress nounwind uwtable
define linkonce_odr hidden void @_ZN16RelocationHolderC2Ev(ptr noundef nonnull align 8 dereferenceable(40) %0) unnamed_addr #1 comdat align 2 {
  %2 = alloca ptr, align 8
  store ptr %0, ptr %2, align 8
  %3 = load ptr, ptr %2, align 8
  call void @_ZN16RelocationHolderC2I10RelocationJEEENS_9ConstructIT_EEDpRKT0_(ptr noundef nonnull align 8 dereferenceable(40) %3)
  ret void
}

; Function Attrs: mustprogress nounwind uwtable
define linkonce_odr hidden void @_ZN7AddressC2E8Registeri(ptr noundef nonnull align 8 dereferenceable(64) %0, i32 %1, i32 noundef %2) unnamed_addr #1 comdat align 2 {
  %4 = alloca %class.Register, align 4
  %5 = alloca ptr, align 8
  %6 = alloca i32, align 4
  %7 = getelementptr inbounds %class.Register, ptr %4, i32 0, i32 0
  store i32 %1, ptr %7, align 4
  store ptr %0, ptr %5, align 8
  store i32 %2, ptr %6, align 4
  %8 = load ptr, ptr %5, align 8
  %9 = getelementptr inbounds %class.Address, ptr %8, i32 0, i32 0
  call void @llvm.memcpy.p0.p0.i64(ptr align 8 %9, ptr align 4 %4, i64 4, i1 false)
  %10 = getelementptr inbounds %class.Address, ptr %8, i32 0, i32 1
  call void @llvm.memcpy.p0.p0.i64(ptr align 4 %10, ptr align 4 @_ZL5noreg, i64 4, i1 false)
  %11 = getelementptr inbounds %class.Address, ptr %8, i32 0, i32 2
  call void @llvm.memcpy.p0.p0.i64(ptr align 8 %11, ptr align 4 @_ZL6xnoreg, i64 4, i1 false)
  %12 = getelementptr inbounds %class.Address, ptr %8, i32 0, i32 3
  store i32 -1, ptr %12, align 4
  %13 = getelementptr inbounds %class.Address, ptr %8, i32 0, i32 4
  %14 = load i32, ptr %6, align 4
  store i32 %14, ptr %13, align 8
  %15 = getelementptr inbounds %class.Address, ptr %8, i32 0, i32 5
  store i8 0, ptr %15, align 4
  %16 = getelementptr inbounds %class.Address, ptr %8, i32 0, i32 7
  call void @_ZN16RelocationHolderC2Ev(ptr noundef nonnull align 8 dereferenceable(40) %16)
  ret void
}

; Function Attrs: mustprogress nounwind uwtable
define hidden void @_ZN17SaveLiveRegisters19gp_register_restoreE8Register(ptr noundef nonnull align 8 dereferenceable(88) %0, i32 %1) #1 align 2 {
  %3 = alloca %class.Register, align 4
  %4 = alloca ptr, align 8
  %5 = alloca %class.Register, align 4
  %6 = alloca %class.Address, align 8
  %7 = alloca %class.Register, align 4
  %8 = getelementptr inbounds %class.Register, ptr %3, i32 0, i32 0
  store i32 %1, ptr %8, align 4
  store ptr %0, ptr %4, align 8
  %9 = load ptr, ptr %4, align 8
  %10 = getelementptr inbounds %class.SaveLiveRegisters, ptr %9, i32 0, i32 0
  %11 = load ptr, ptr %10, align 8
  call void @llvm.memcpy.p0.p0.i64(ptr align 4 %5, ptr align 4 %3, i64 4, i1 false)
  call void @llvm.memcpy.p0.p0.i64(ptr align 4 %7, ptr align 4 @_ZL3rsp, i64 4, i1 false)
  %12 = getelementptr inbounds %class.SaveLiveRegisters, ptr %9, i32 0, i32 5
  %13 = load i32, ptr %12, align 4
  %14 = getelementptr inbounds %class.Register, ptr %7, i32 0, i32 0
  %15 = load i32, ptr %14, align 4
  call void @_ZN7AddressC2E8Registeri(ptr noundef nonnull align 8 dereferenceable(64) %6, i32 %15, i32 noundef %13)
  %16 = getelementptr inbounds %class.Register, ptr %5, i32 0, i32 0
  %17 = load i32, ptr %16, align 4
  call void @_ZN9Assembler4movqE8Register7Address(ptr noundef nonnull align 8 dereferenceable(40) %11, i32 %17, ptr noundef %6)
  %18 = getelementptr inbounds %class.SaveLiveRegisters, ptr %9, i32 0, i32 5
  %19 = load i32, ptr %18, align 4
  %20 = add nsw i32 %19, 8
  store i32 %20, ptr %18, align 4
  ret void
}