; Function Attrs: mustprogress nounwind uwtable
define hidden void @_ZN17SaveLiveRegisters19gp_register_restoreE8Register(ptr nocapture noundef nonnull align 8 dereferenceable(88) %0, i32 %1) local_unnamed_addr #0 align 2 {
  %3 = alloca %class.Address, align 16
  %4 = load ptr, ptr %0, align 8
  %5 = getelementptr inbounds i8, ptr %0, i64 84
  %6 = load i32, ptr %5, align 4
  store <4 x i32> <i32 4, i32 -1, i32 -1, i32 -1>, ptr %3, align 16
  %7 = getelementptr inbounds i8, ptr %3, i64 16
  store i32 %6, ptr %7, align 16
  %8 = getelementptr inbounds i8, ptr %3, i64 20
  store i8 0, ptr %8, align 4
  %9 = getelementptr inbounds i8, ptr %3, i64 24
  store ptr getelementptr inbounds inrange(-16, 72) (i8, ptr @_ZTV10Relocation, i64 16), ptr %9, align 8
  %10 = getelementptr inbounds i8, ptr %3, i64 32
  store ptr null, ptr %10, align 16
  %11 = getelementptr inbounds i8, ptr %3, i64 40
  store i32 0, ptr %11, align 8
  call void @_ZN9Assembler4movqE8Register7Address(ptr noundef nonnull align 8 dereferenceable(40) %4, i32 %1, ptr noundef nonnull %3) #12
  %12 = load i32, ptr %5, align 4
  %13 = add nsw i32 %12, 8
  store i32 %13, ptr %5, align 4
  ret void
}